target datalayout = "e-m:e-p270:32:32-p271:32:32-p272:64:64-i64:64-i128:128-f80:128-n8:16:32:64-S128"
target triple = "x86_64-pc-linux-gnu"

%struct.GDBUserState = type { i32, ptr, i32, i8, [16 x i64], i8, i32, [2 x i32], i32, i32, [128 x i8], i64 }
%struct._GArray = type { ptr, i32 }
%union.GdbCmdVariant = type { ptr, [8 x i8] }

@gdbserver_user_state = internal global %struct.GDBUserState zeroinitializer, align 8
@.str.19 = private unnamed_addr constant [3 x i8] c"OK\00", align 1
@.str.20 = private unnamed_addr constant [2 x i8] c"0\00", align 1
@.str.23 = private unnamed_addr constant [2 x i8] c"1\00", align 1
@.str.24 = private unnamed_addr constant [4 x i8] c"E00\00", align 1

; Function Attrs: alwaysinline nounwind
define internal ptr @memcpy.inline(ptr noalias nonnull %0, ptr noalias nonnull %1, i64 %2) #8 {
  %4 = alloca ptr, align 8
  %5 = alloca ptr, align 8
  %6 = alloca i64, align 8
  store ptr %0, ptr %4, align 8
  store ptr %1, ptr %5, align 8
  store i64 %2, ptr %6, align 8
  %7 = load ptr, ptr %4, align 8
  %8 = load ptr, ptr %5, align 8
  %9 = load i64, ptr %6, align 8
  %10 = load ptr, ptr %4, align 8
  %11 = call i64 @llvm.objectsize.i64.p0(ptr %10, i1 false, i1 true, i1 false)
  %12 = call ptr @__memcpy_chk(ptr noundef %7, ptr noundef %8, i64 noundef %9, i64 noundef %11) #14
  ret ptr %12
}

; Function Attrs: inlinehint nounwind sspstrong uwtable
define internal void @set_bit(i64 noundef %0, ptr noundef %1) #6 {
  %3 = alloca i64, align 8
  %4 = alloca ptr, align 8
  %5 = alloca i64, align 8
  %6 = alloca ptr, align 8
  store i64 %0, ptr %3, align 8
  store ptr %1, ptr %4, align 8
  call void @llvm.lifetime.start.p0(i64 8, ptr %5) #14
  %7 = load i64, ptr %3, align 8
  %8 = urem i64 %7, 64
  %9 = shl i64 1, %8
  store i64 %9, ptr %5, align 8
  call void @llvm.lifetime.start.p0(i64 8, ptr %6) #14
  %10 = load ptr, ptr %4, align 8
  %11 = load i64, ptr %3, align 8
  %12 = udiv i64 %11, 64
  %13 = getelementptr inbounds nuw i64, ptr %10, i64 %12
  store ptr %13, ptr %6, align 8
  %14 = load i64, ptr %5, align 8
  %15 = load ptr, ptr %6, align 8
  %16 = load i64, ptr %15, align 8
  %17 = or i64 %16, %14
  store i64 %17, ptr %15, align 8
  call void @llvm.lifetime.end.p0(i64 8, ptr %6) #14
  call void @llvm.lifetime.end.p0(i64 8, ptr %5) #14
  ret void
}

; Function Attrs: alwaysinline nounwind
define internal ptr @memset.inline(ptr nonnull %0, i32 %1, i64 %2) #8 {
  %4 = alloca ptr, align 8
  %5 = alloca i32, align 4
  %6 = alloca i64, align 8
  store ptr %0, ptr %4, align 8
  store i32 %1, ptr %5, align 4
  store i64 %2, ptr %6, align 8
  %7 = load ptr, ptr %4, align 8
  %8 = load i32, ptr %5, align 4
  %9 = load i64, ptr %6, align 8
  %10 = load ptr, ptr %4, align 8
  %11 = call i64 @llvm.objectsize.i64.p0(ptr %10, i1 false, i1 true, i1 false)
  %12 = call ptr @__memset_chk(ptr noundef %7, i32 noundef %8, i64 noundef %9, i64 noundef %11) #14
  ret ptr %12
}

; Function Attrs: nounwind sspstrong uwtable
define dso_local void @gdb_handle_set_catch_syscalls(ptr noundef %0, ptr noundef %1) #0 {
  %3 = alloca ptr, align 8
  %4 = alloca ptr, align 8
  %5 = alloca ptr, align 8
  %6 = alloca [16 x i64], align 16
  %7 = alloca i8, align 1
  %8 = alloca i32, align 4
  %9 = alloca ptr, align 8
  %10 = alloca i32, align 4
  store ptr %0, ptr %3, align 8
  store ptr %1, ptr %4, align 8
  call void @llvm.lifetime.start.p0(i64 8, ptr %5) #14
  %11 = load ptr, ptr %3, align 8
  %12 = getelementptr inbounds nuw %struct._GArray, ptr %11, i32 0, i32 0
  %13 = load ptr, ptr %12, align 8
  %14 = getelementptr inbounds %union.GdbCmdVariant, ptr %13, i64 0
  %15 = load ptr, ptr %14, align 8
  store ptr %15, ptr %5, align 8
  call void @llvm.lifetime.start.p0(i64 128, ptr %6) #14
  call void @llvm.memset.p0.i64(ptr align 16 %6, i8 0, i64 128, i1 false), !annotation !4
  call void @llvm.lifetime.start.p0(i64 1, ptr %7) #14
  store i8 0, ptr %7, align 1, !annotation !4
  call void @llvm.lifetime.start.p0(i64 4, ptr %8) #14
  store i32 0, ptr %8, align 4, !annotation !4
  call void @llvm.lifetime.start.p0(i64 8, ptr %9) #14
  store ptr null, ptr %9, align 8, !annotation !4
  %16 = load ptr, ptr %5, align 8
  %17 = call i32 @strcmp(ptr noundef %16, ptr noundef @.str.20) #18
  %18 = icmp eq i32 %17, 0
  br i1 %18, label %19, label %22

19:                                               ; preds = %2
  store i8 0, ptr getelementptr inbounds nuw (%struct.GDBUserState, ptr @gdbserver_user_state, i32 0, i32 3), align 4
  %20 = call ptr @memset.inline(ptr noundef getelementptr inbounds nuw (%struct.GDBUserState, ptr @gdbserver_user_state, i32 0, i32 4), i32 noundef 0, i64 noundef 128) #14
  %21 = call i32 @gdb_put_packet(ptr noundef @.str.19)
  store i32 1, ptr %10, align 4
  br label %91

22:                                               ; preds = %2
  %23 = load ptr, ptr %5, align 8
  %24 = call i32 @strcmp(ptr noundef %23, ptr noundef @.str.23) #18
  %25 = icmp eq i32 %24, 0
  br i1 %25, label %26, label %28

26:                                               ; preds = %22
  store i8 1, ptr getelementptr inbounds nuw (%struct.GDBUserState, ptr @gdbserver_user_state, i32 0, i32 3), align 4
  %27 = call i32 @gdb_put_packet(ptr noundef @.str.19)
  store i32 1, ptr %10, align 4
  br label %91

28:                                               ; preds = %22
  %29 = load ptr, ptr %5, align 8
  %30 = getelementptr inbounds i8, ptr %29, i64 0
  %31 = load i8, ptr %30, align 1
  %32 = sext i8 %31 to i32
  %33 = icmp eq i32 %32, 49
  br i1 %33, label %34, label %88

34:                                               ; preds = %28
  %35 = load ptr, ptr %5, align 8
  %36 = getelementptr inbounds i8, ptr %35, i64 1
  %37 = load i8, ptr %36, align 1
  %38 = sext i8 %37 to i32
  %39 = icmp eq i32 %38, 59
  br i1 %39, label %40, label %88

40:                                               ; preds = %34
  store i8 0, ptr %7, align 1
  %41 = getelementptr inbounds [16 x i64], ptr %6, i64 0, i64 0
  %42 = call ptr @memset.inline(ptr noundef %41, i32 noundef 0, i64 noundef 128) #14
  %43 = load ptr, ptr %5, align 8
  %44 = getelementptr inbounds i8, ptr %43, i64 2
  store ptr %44, ptr %9, align 8
  br label %45

45:                                               ; preds = %74, %40
  %46 = load ptr, ptr %9, align 8
  %47 = call i32 @qemu_strtoui(ptr noundef %46, ptr noundef %9, i32 noundef 16, ptr noundef %8)
  %48 = icmp ne i32 %47, 0
  br i1 %48, label %59, label %49

49:                                               ; preds = %45
  %50 = load ptr, ptr %9, align 8
  %51 = load i8, ptr %50, align 1
  %52 = sext i8 %51 to i32
  %53 = icmp ne i32 %52, 0
  br i1 %53, label %54, label %60

54:                                               ; preds = %49
  %55 = load ptr, ptr %9, align 8
  %56 = load i8, ptr %55, align 1
  %57 = sext i8 %56 to i32
  %58 = icmp ne i32 %57, 59
  br i1 %58, label %59, label %60

59:                                               ; preds = %54, %45
  br label %89

60:                                               ; preds = %54, %49
  %61 = load i32, ptr %8, align 4
  %62 = icmp uge i32 %61, 1024
  br i1 %62, label %63, label %64

63:                                               ; preds = %60
  store i8 1, ptr %7, align 1
  br label %68

64:                                               ; preds = %60
  %65 = load i32, ptr %8, align 4
  %66 = zext i32 %65 to i64
  %67 = getelementptr inbounds [16 x i64], ptr %6, i64 0, i64 0
  call void @set_bit(i64 noundef %66, ptr noundef %67)
  br label %68

68:                                               ; preds = %64, %63
  %69 = load ptr, ptr %9, align 8
  %70 = load i8, ptr %69, align 1
  %71 = icmp ne i8 %70, 0
  br i1 %71, label %73, label %72

72:                                               ; preds = %68
  br label %77

73:                                               ; preds = %68
  br label %74

74:                                               ; preds = %73
  %75 = load ptr, ptr %9, align 8
  %76 = getelementptr inbounds nuw i8, ptr %75, i32 1
  store ptr %76, ptr %9, align 8
  br label %45

77:                                               ; preds = %72
  %78 = load i8, ptr %7, align 1, !range !7, !noundef !8
  %79 = trunc i8 %78 to i1
  %80 = zext i1 %79 to i8
  store i8 %80, ptr getelementptr inbounds nuw (%struct.GDBUserState, ptr @gdbserver_user_state, i32 0, i32 3), align 4
  %81 = load i8, ptr %7, align 1, !range !7, !noundef !8
  %82 = trunc i8 %81 to i1
  br i1 %82, label %86, label %83

83:                                               ; preds = %77
  %84 = getelementptr inbounds [16 x i64], ptr %6, i64 0, i64 0
  %85 = call ptr @memcpy.inline(ptr noundef getelementptr inbounds nuw (%struct.GDBUserState, ptr @gdbserver_user_state, i32 0, i32 4), ptr noundef %84, i64 noundef 128) #14
  br label %86

86:                                               ; preds = %83, %77
  %87 = call i32 @gdb_put_packet(ptr noundef @.str.19)
  store i32 1, ptr %10, align 4
  br label %91

88:                                               ; preds = %34, %28
  br label %89

89:                                               ; preds = %88, %59
  %90 = call i32 @gdb_put_packet(ptr noundef @.str.24)
  store i32 0, ptr %10, align 4
  br label %91

91:                                               ; preds = %89, %86, %26, %19
  call void @llvm.lifetime.end.p0(i64 8, ptr %9) #14
  call void @llvm.lifetime.end.p0(i64 4, ptr %8) #14
  call void @llvm.lifetime.end.p0(i64 1, ptr %7) #14
  call void @llvm.lifetime.end.p0(i64 128, ptr %6) #14
  call void @llvm.lifetime.end.p0(i64 8, ptr %5) #14
  %92 = load i32, ptr %10, align 4
  switch i32 %92, label %94 [
    i32 0, label %93
    i32 1, label %93
  ]

93:                                               ; preds = %91, %91
  ret void

94:                                               ; preds = %91
  unreachable
}