; Function Attrs: nounwind sspstrong uwtable
define dso_local void @gdb_handle_set_catch_syscalls(ptr noundef readonly captures(none) %0, ptr noundef readnone captures(none) %1) local_unnamed_addr #0 {
sub_0:
  %2 = alloca [16 x i64], align 16
  %3 = alloca i32, align 4
  %4 = alloca ptr, align 8
  %5 = load ptr, ptr %0, align 8
  %6 = load ptr, ptr %5, align 8
  call void @llvm.lifetime.start.p0(i64 128, ptr nonnull %2) #16
  call void @llvm.lifetime.start.p0(i64 4, ptr nonnull %3) #16
  store i32 0, ptr %3, align 4, !annotation !4
  call void @llvm.lifetime.start.p0(i64 8, ptr nonnull %4) #16
  store ptr null, ptr %4, align 8, !annotation !4
  %7 = load i8, ptr %6, align 1
  switch i8 %7, label %.loopexit [
    i8 48, label %.tail
    i8 49, label %.tail12
  ]

.tail:                                            ; preds = %sub_0
  %8 = getelementptr inbounds nuw i8, ptr %6, i64 1
  %9 = load i8, ptr %8, align 1
  %10 = icmp eq i8 %9, 0
  br i1 %10, label %11, label %.loopexit

11:                                               ; preds = %.tail
  store i8 0, ptr getelementptr inbounds nuw (i8, ptr @gdbserver_user_state, i64 20), align 4
  tail call void @llvm.memset.p0.i64(ptr noundef nonnull align 8 dereferenceable(128) getelementptr inbounds nuw (i8, ptr @gdbserver_user_state, i64 24), i8 noundef 0, i64 noundef 128, i1 noundef false) #16
  %12 = tail call i32 @gdb_put_packet(ptr noundef nonnull @.str.19) #16
  br label %48

.tail12:                                          ; preds = %sub_0
  %13 = getelementptr inbounds nuw i8, ptr %6, i64 1
  %14 = load i8, ptr %13, align 1
  %15 = icmp eq i8 %14, 0
  br i1 %15, label %16, label %18

16:                                               ; preds = %.tail12
  store i8 1, ptr getelementptr inbounds nuw (i8, ptr @gdbserver_user_state, i64 20), align 4
  %17 = tail call i32 @gdb_put_packet(ptr noundef nonnull @.str.19) #16
  br label %48

18:                                               ; preds = %.tail12
  %19 = getelementptr inbounds nuw i8, ptr %6, i64 1
  %20 = load i8, ptr %19, align 1
  %21 = icmp eq i8 %20, 59
  br i1 %21, label %22, label %.loopexit

22:                                               ; preds = %18
  call void @llvm.memset.p0.i64(ptr noundef nonnull align 16 dereferenceable(128) %2, i8 noundef 0, i64 noundef 128, i1 noundef false) #16
  %23 = getelementptr inbounds nuw i8, ptr %6, i64 2
  store ptr %23, ptr %4, align 8
  %24 = call i32 @qemu_strtoui(ptr noundef nonnull %23, ptr noundef nonnull %4, i32 noundef 16, ptr noundef nonnull %3) #16
  %.not16 = icmp eq i32 %24, 0
  br i1 %.not16, label %.lr.ph, label %.loopexit

25:                                               ; preds = %41
  %26 = getelementptr inbounds nuw i8, ptr %28, i64 1
  store ptr %26, ptr %4, align 8
  %27 = call i32 @qemu_strtoui(ptr noundef nonnull %26, ptr noundef nonnull %4, i32 noundef 16, ptr noundef nonnull %3) #16
  %.not = icmp eq i32 %27, 0
  br i1 %.not, label %.lr.ph, label %.loopexit

.lr.ph:                                           ; preds = %22, %25
  %.017 = phi i8 [ %.1, %25 ], [ 0, %22 ]
  %28 = load ptr, ptr %4, align 8
  %29 = load i8, ptr %28, align 1
  switch i8 %29, label %.loopexit [
    i8 0, label %30
    i8 59, label %30
  ]

30:                                               ; preds = %.lr.ph, %.lr.ph
  %31 = load i32, ptr %3, align 4
  %32 = icmp ugt i32 %31, 1023
  br i1 %32, label %41, label %33

33:                                               ; preds = %30
  %34 = zext nneg i32 %31 to i64
  %35 = and i64 %34, 63
  %36 = shl nuw i64 1, %35
  %37 = lshr i64 %34, 6
  %38 = getelementptr inbounds nuw i64, ptr %2, i64 %37
  %39 = load i64, ptr %38, align 8
  %40 = or i64 %39, %36
  store i64 %40, ptr %38, align 8
  br label %41

41:                                               ; preds = %30, %33
  %.1 = phi i8 [ %.017, %33 ], [ 1, %30 ]
  %.not11 = icmp eq i8 %29, 0
  br i1 %.not11, label %42, label %25

42:                                               ; preds = %41
  %43 = trunc nuw i8 %.1 to i1
  store i8 %.1, ptr getelementptr inbounds nuw (i8, ptr @gdbserver_user_state, i64 20), align 4
  br i1 %43, label %45, label %44

44:                                               ; preds = %42
  call void @llvm.memcpy.p0.p0.i64(ptr noundef nonnull align 8 dereferenceable(128) getelementptr inbounds nuw (i8, ptr @gdbserver_user_state, i64 24), ptr noundef nonnull align 16 dereferenceable(128) %2, i64 noundef 128, i1 noundef false) #16
  br label %45

45:                                               ; preds = %44, %42
  %46 = call i32 @gdb_put_packet(ptr noundef nonnull @.str.19) #16
  br label %48

.loopexit:                                        ; preds = %25, %.lr.ph, %sub_0, %.tail, %22, %18
  %47 = call i32 @gdb_put_packet(ptr noundef nonnull @.str.24) #16
  br label %48

48:                                               ; preds = %.loopexit, %45, %16, %11
  call void @llvm.lifetime.end.p0(i64 8, ptr nonnull %4) #16
  call void @llvm.lifetime.end.p0(i64 4, ptr nonnull %3) #16
  call void @llvm.lifetime.end.p0(i64 128, ptr nonnull %2) #16
  ret void
}